target datalayout = "e-m:e-p270:32:32-p271:32:32-p272:64:64-i64:64-i128:128-f80:128-n8:16:32:64-S128"
target triple = "x86_64-pc-linux-gnu"

; Function Attrs: mustprogress uwtable
define dso_local noundef ptr @_ZN10cmMakefile17GetOrCreateSourceERKNSt7__cxx1112basic_stringIcSt11char_traitsIcESaIcEEEb24cmSourceFileLocationKind(ptr noundef nonnull align 8 dereferenceable(3520) %0, ptr noundef nonnull align 8 dereferenceable(32) %1, i1 noundef zeroext %2, i32 noundef %3) #5 align 2 {
  %5 = alloca ptr, align 8
  %6 = alloca ptr, align 8
  %7 = alloca ptr, align 8
  %8 = alloca i8, align 1
  %9 = alloca i32, align 4
  %10 = alloca ptr, align 8
  store ptr %0, ptr %6, align 8
  store ptr %1, ptr %7, align 8
  %11 = zext i1 %2 to i8
  store i8 %11, ptr %8, align 1
  store i32 %3, ptr %9, align 4
  %12 = load ptr, ptr %6, align 8
  %13 = load ptr, ptr %7, align 8
  %14 = load i32, ptr %9, align 4
  %15 = call noundef ptr @_ZNK10cmMakefile9GetSourceERKNSt7__cxx1112basic_stringIcSt11char_traitsIcESaIcEEE24cmSourceFileLocationKind(ptr noundef nonnull align 8 dereferenceable(3520) %12, ptr noundef nonnull align 8 dereferenceable(32) %13, i32 noundef %14)
  store ptr %15, ptr %10, align 8
  %16 = load ptr, ptr %10, align 8
  %17 = icmp ne ptr %16, null
  br i1 %17, label %18, label %20

18:                                               ; preds = %4
  %19 = load ptr, ptr %10, align 8
  store ptr %19, ptr %5, align 8
  br label %26

20:                                               ; preds = %4
  %21 = load ptr, ptr %7, align 8
  %22 = load i8, ptr %8, align 1
  %23 = trunc i8 %22 to i1
  %24 = load i32, ptr %9, align 4
  %25 = call noundef ptr @_ZN10cmMakefile12CreateSourceERKNSt7__cxx1112basic_stringIcSt11char_traitsIcESaIcEEEb24cmSourceFileLocationKind(ptr noundef nonnull align 8 dereferenceable(3520) %12, ptr noundef nonnull align 8 dereferenceable(32) %21, i1 noundef zeroext %23, i32 noundef %24)
  store ptr %25, ptr %5, align 8
  br label %26

26:                                               ; preds = %20, %18
  %27 = load ptr, ptr %5, align 8
  ret ptr %27
}

; Function Attrs: mustprogress uwtable
define dso_local noundef ptr @_ZN10cmMakefile26GetOrCreateGeneratedSourceERKNSt7__cxx1112basic_stringIcSt11char_traitsIcESaIcEEE(ptr noundef nonnull align 8 dereferenceable(3520) %0, ptr noundef nonnull align 8 dereferenceable(32) %1) #5 align 2 {
  %3 = alloca ptr, align 8
  %4 = alloca ptr, align 8
  %5 = alloca ptr, align 8
  store ptr %0, ptr %3, align 8
  store ptr %1, ptr %4, align 8
  %6 = load ptr, ptr %3, align 8
  %7 = load ptr, ptr %4, align 8
  %8 = call noundef ptr @_ZN10cmMakefile17GetOrCreateSourceERKNSt7__cxx1112basic_stringIcSt11char_traitsIcESaIcEEEb24cmSourceFileLocationKind(ptr noundef nonnull align 8 dereferenceable(3520) %6, ptr noundef nonnull align 8 dereferenceable(32) %7, i1 noundef zeroext true, i32 noundef 1)
  store ptr %8, ptr %5, align 8
  %9 = load ptr, ptr %5, align 8
  call void @_ZN12cmSourceFile15MarkAsGeneratedEv(ptr noundef nonnull align 8 dereferenceable(370) %9)
  %10 = load ptr, ptr %5, align 8
  ret ptr %10
}