; Function Attrs: mustprogress uwtable
define dso_local noundef ptr @_ZN10cmMakefile26GetOrCreateGeneratedSourceERKNSt7__cxx1112basic_stringIcSt11char_traitsIcESaIcEEE(ptr noundef nonnull align 8 dereferenceable(3520) %0, ptr noundef nonnull align 8 dereferenceable(32) %1) local_unnamed_addr #4 align 2 {
  %3 = tail call noundef ptr @_ZNK10cmMakefile9GetSourceERKNSt7__cxx1112basic_stringIcSt11char_traitsIcESaIcEEE24cmSourceFileLocationKind(ptr noundef nonnull align 8 dereferenceable(3520) %0, ptr noundef nonnull align 8 dereferenceable(32) %1, i32 noundef 1)
  %.not.i = icmp eq ptr %3, null
  br i1 %.not.i, label %4, label %_ZN10cmMakefile17GetOrCreateSourceERKNSt7__cxx1112basic_stringIcSt11char_traitsIcESaIcEEEb24cmSourceFileLocationKind.exit

4:                                                ; preds = %2
  %5 = tail call noundef ptr @_ZN10cmMakefile12CreateSourceERKNSt7__cxx1112basic_stringIcSt11char_traitsIcESaIcEEEb24cmSourceFileLocationKind(ptr noundef nonnull align 8 dereferenceable(3520) %0, ptr noundef nonnull align 8 dereferenceable(32) %1, i1 noundef zeroext true, i32 noundef 1)
  br label %_ZN10cmMakefile17GetOrCreateSourceERKNSt7__cxx1112basic_stringIcSt11char_traitsIcESaIcEEEb24cmSourceFileLocationKind.exit

_ZN10cmMakefile17GetOrCreateSourceERKNSt7__cxx1112basic_stringIcSt11char_traitsIcESaIcEEEb24cmSourceFileLocationKind.exit: ; preds = %2, %4
  %.0.i = phi ptr [ %5, %4 ], [ %3, %2 ]
  tail call void @_ZN12cmSourceFile15MarkAsGeneratedEv(ptr noundef nonnull align 8 dereferenceable(370) %.0.i)
  ret ptr %.0.i
}